(dp0
S'METTS MARK'
p1
(dp2
S'to_messages'
p3
I807
sS'deferral_payments'
p4
S'NaN'
p5
sS'expenses'
p6
I94299
sS'poi'
p7
I00
sS'deferred_income'
p8
g5
sS'email_address'
p9
S'mark.metts@enron.com'
p10
sS'long_term_incentive'
p11
g5
sS'stocks_money'
p12
I585062
sS'restricted_stock_deferred'
p13
g5
sS'shared_receipt_with_poi'
p14
I702
sS'loan_advances'
p15
g5
sS'from_messages'
p16
I29
sS'other'
p17
I1740
sS'other_bonus'
p18
I601740
sS'director_fees'
p19
g5
sS'bonus'
p20
I600000
sS'total_stock_value'
p21
I585062
sS'from_poi_to_this_person'
p22
I38
sS'from_this_person_to_poi'
p23
I1
sS'di_lti'
p24
I1
sS'restricted_stock'
p25
I585062
sS'salary'
p26
I365788
sS'exp_la'
p27
I0
sS'total_payments'
p28
I1061827
sS'sal_exp_df'
p29
I460087
sS'exercised_stock_options'
p30
g5
ssS'BAXTER JOHN C'
p31
(dp32
g3
g5
sg4
I1295738
sg6
I11200
sg7
I00
sg8
I-1386055
sg9
g5
sg11
I1586055
sg12
I70969142492352
sg13
g5
sg14
g5
sg15
g5
sg16
g5
sg17
I2660303
sg18
I3860303
sg19
g5
sg20
I1200000
sg21
I10623258
sg22
g5
sg23
g5
sg24
I-2198359463025
sg25
I3942714
sg26
I267102
sg27
I0
sg28
I5634343
sg29
I278302
sg30
I6680544
ssS'ELLIOTT STEVEN'
p33
(dp34
g3
g5
sg4
g5
sg6
I78552
sg7
I00
sg8
I-400729
sg9
S'steven.elliott@enron.com'
p35
sg11
g5
sg12
I32661311634840
sg13
g5
sg14
g5
sg15
g5
sg16
g5
sg17
I12961
sg18
I362961
sg19
g5
sg20
I350000
sg21
I6678735
sg22
g5
sg23
g5
sg24
I-400729
sg25
I1788391
sg26
I170941
sg27
I0
sg28
I211725
sg29
I249493
sg30
I4890344
ssS'CORDES WILLIAM R'
p36
(dp37
g3
I764
sg4
g5
sg6
g5
sg7
I00
sg8
g5
sg9
S'bill.cordes@enron.com'
p38
sg11
g5
sg12
I676740892250
sg13
g5
sg14
I58
sg15
g5
sg16
I12
sg17
g5
sg18
I0
sg19
g5
sg20
g5
sg21
I1038185
sg22
I10
sg23
I0
sg24
I1
sg25
I386335
sg26
g5
sg27
I0
sg28
g5
sg29
I0
sg30
I651850
ssS'HANNON KEVIN P'
p39
(dp40
g3
I1045
sg4
g5
sg6
I34039
sg7
I01
sg8
I-3117011
sg9
S'kevin.hannon@enron.com'
p41
sg11
I1617011
sg12
I35393724361065
sg13
g5
sg14
I1035
sg15
g5
sg16
I32
sg17
I11350
sg18
I1511350
sg19
g5
sg20
I1500000
sg21
I6391065
sg22
I32
sg23
I21
sg24
I-5040241074121
sg25
I853064
sg26
I243293
sg27
I0
sg28
I288682
sg29
I277332
sg30
I5538001
ssS'MORDAUNT KRISTINA M'
p42
(dp43
g3
g5
sg4
g5
sg6
I35018
sg7
I00
sg8
g5
sg9
S'kristina.mordaunt@enron.com'
p44
sg11
g5
sg12
I208510
sg13
g5
sg14
g5
sg15
g5
sg16
g5
sg17
I1411
sg18
I326411
sg19
g5
sg20
I325000
sg21
I208510
sg22
g5
sg23
g5
sg24
I1
sg25
I208510
sg26
I267093
sg27
I0
sg28
I628522
sg29
I302111
sg30
g5
ssS'MEYER ROCKFORD G'
p45
(dp46
g3
I232
sg4
I1848227
sg6
g5
sg7
I00
sg8
g5
sg9
S'rockford.meyer@enron.com'
p47
sg11
g5
sg12
I471712810897
sg13
g5
sg14
I22
sg15
g5
sg16
I28
sg17
g5
sg18
I0
sg19
g5
sg20
g5
sg21
I955873
sg22
I0
sg23
I0
sg24
I1
sg25
I462384
sg26
g5
sg27
I0
sg28
I1848227
sg29
I0
sg30
I493489
ssS'MCMAHON JEFFREY'
p48
(dp49
g3
I2355
sg4
g5
sg6
I137108
sg7
I00
sg8
g5
sg9
S'jeffrey.mcmahon@enron.com'
p50
sg11
I694862
sg12
I1835881714170
sg13
g5
sg14
I2228
sg15
g5
sg16
I48
sg17
I297353
sg18
I2897353
sg19
g5
sg20
I2600000
sg21
I1662855
sg22
I58
sg23
I26
sg24
I694862
sg25
I558801
sg26
I370448
sg27
I0
sg28
I4099771
sg29
I507556
sg30
I1104054
ssS'HORTON STANLEY C'
p51
(dp52
g3
I2350
sg4
I3131860
sg6
g5
sg7
I00
sg8
g5
sg9
S'stanley.horton@enron.com'
p53
sg11
g5
sg12
I37811265112712
sg13
g5
sg14
I1074
sg15
g5
sg16
I1073
sg17
g5
sg18
I0
sg19
g5
sg20
g5
sg21
I7256648
sg22
I44
sg23
I15
sg24
I1
sg25
I2046079
sg26
g5
sg27
I0
sg28
I3131860
sg29
I0
sg30
I5210569
ssS'PIPER GREGORY F'
p54
(dp55
g3
I1238
sg4
I1130036
sg6
I43057
sg7
I00
sg8
I-33333
sg9
S'greg.piper@enron.com'
p56
sg11
g5
sg12
I774910484100
sg13
I-409554
sg14
I742
sg15
g5
sg16
I222
sg17
I778
sg18
I400778
sg19
g5
sg20
I400000
sg21
I880290
sg22
I61
sg23
I48
sg24
I-33333
sg25
I409554
sg26
I197091
sg27
I0
sg28
I1737629
sg29
I240148
sg30
I880290
ssS'HUMPHREY GENE E'
p57
(dp58
g3
I128
sg4
I2964506
sg6
I4994
sg7
I00
sg8
g5
sg9
S'gene.humphrey@enron.com'
p59
sg11
g5
sg12
I5211029741824
sg13
g5
sg14
I119
sg15
g5
sg16
I17
sg17
g5
sg18
I0
sg19
g5
sg20
g5
sg21
I2282768
sg22
I10
sg23
I17
sg24
I1
sg25
g5
sg26
I130724
sg27
I0
sg28
I3100224
sg29
I135718
sg30
I2282768
ssS'UMANOFF ADAM S'
p60
(dp61
g3
I111
sg4
g5
sg6
I53122
sg7
I00
sg8
g5
sg9
S'adam.umanoff@enron.com'
p62
sg11
g5
sg12
I1
sg13
g5
sg14
I41
sg15
g5
sg16
I18
sg17
g5
sg18
I788750
sg19
g5
sg20
I788750
sg21
g5
sg22
I12
sg23
I0
sg24
I1
sg25
g5
sg26
I288589
sg27
I0
sg28
I1130461
sg29
I341711
sg30
g5
ssS'BLACHMAN JEREMY M'
p63
(dp64
g3
I2475
sg4
g5
sg6
I84208
sg7
I00
sg8
g5
sg9
S'jeremy.blachman@enron.com'
p65
sg11
I831809
sg12
I730379522802
sg13
g5
sg14
I2326
sg15
g5
sg16
I14
sg17
I272
sg18
I850272
sg19
g5
sg20
I850000
sg21
I954354
sg22
I25
sg23
I2
sg24
I831809
sg25
I189041
sg26
I248546
sg27
I0
sg28
I2014835
sg29
I332754
sg30
I765313
ssS'SUNDE MARTIN'
p66
(dp67
g3
I2647
sg4
g5
sg6
g5
sg7
I00
sg8
g5
sg9
S'marty.sunde@enron.com'
p68
sg11
I476451
sg12
I698920
sg13
g5
sg14
I2565
sg15
g5
sg16
I38
sg17
I111122
sg18
I811122
sg19
g5
sg20
I700000
sg21
I698920
sg22
I37
sg23
I13
sg24
I476451
sg25
I698920
sg26
I257486
sg27
I0
sg28
I1545059
sg29
I257486
sg30
g5
ssS'GIBBS DANA R'
p69
(dp70
g3
I169
sg4
I504610
sg6
g5
sg7
I00
sg8
g5
sg9
S'dana.gibbs@enron.com'
p71
sg11
I461912
sg12
I4920743975625
sg13
g5
sg14
I23
sg15
g5
sg16
I12
sg17
g5
sg18
I0
sg19
g5
sg20
g5
sg21
I2218275
sg22
I0
sg23
I0
sg24
I461912
sg25
g5
sg26
g5
sg27
I0
sg28
I966522
sg29
I0
sg30
I2218275
ssS'LOWRY CHARLES P'
p72
(dp73
g3
g5
sg4
g5
sg6
g5
sg7
I00
sg8
g5
sg9
g5
sg11
g5
sg12
I138536562025
sg13
I-153686
sg14
g5
sg15
g5
sg16
g5
sg17
g5
sg18
I0
sg19
g5
sg20
g5
sg21
I372205
sg22
g5
sg23
g5
sg24
I1
sg25
I153686
sg26
g5
sg27
I0
sg28
g5
sg29
I0
sg30
I372205
ssS'COLWELL WESLEY'
p74
(dp75
g3
I1758
sg4
I27610
sg6
I16514
sg7
I01
sg8
I-144062
sg9
S'wes.colwell@enron.com'
p76
sg11
g5
sg12
I698242
sg13
g5
sg14
I1132
sg15
g5
sg16
I40
sg17
I101740
sg18
I1301740
sg19
g5
sg20
I1200000
sg21
I698242
sg22
I240
sg23
I11
sg24
I-144062
sg25
I698242
sg26
I288542
sg27
I0
sg28
I1490344
sg29
I305056
sg30
g5
ssS'MULLER MARK S'
p77
(dp78
g3
I136
sg4
I842924
sg6
g5
sg7
I00
sg8
I-719000
sg9
S's..muller@enron.com'
p79
sg11
I1725545
sg12
I1496644879360
sg13
g5
sg14
I114
sg15
g5
sg16
I16
sg17
I947
sg18
I1100947
sg19
g5
sg20
I1100000
sg21
I1416848
sg22
I12
sg23
I0
sg24
I-1240666855000
sg25
I360528
sg26
I251654
sg27
I0
sg28
I3202070
sg29
I251654
sg30
I1056320
ssS'JACKSON CHARLENE R'
p80
(dp81
g3
I258
sg4
g5
sg6
I10181
sg7
I00
sg8
g5
sg9
S'charlene.jackson@enron.com'
p82
sg11
g5
sg12
I134306696305
sg13
g5
sg14
I117
sg15
g5
sg16
I56
sg17
I2435
sg18
I252435
sg19
g5
sg20
I250000
sg21
I725735
sg22
I25
sg23
I19
sg24
I1
sg25
I540672
sg26
I288558
sg27
I0
sg28
I551174
sg29
I298739
sg30
I185063
ssS'WESTFAHL RICHARD K'
p83
(dp84
g3
g5
sg4
g5
sg6
I51870
sg7
I00
sg8
I-10800
sg9
S'dick.westfahl@enron.com'
p85
sg11
I256191
sg12
I384930
sg13
g5
sg14
g5
sg15
g5
sg16
g5
sg17
I401130
sg18
I401130
sg19
g5
sg20
g5
sg21
I384930
sg22
g5
sg23
g5
sg24
I-2766862800
sg25
I384930
sg26
I63744
sg27
I0
sg28
I762135
sg29
I115614
sg30
g5
ssS'WALTERS GARETH W'
p86
(dp87
g3
g5
sg4
I53625
sg6
I33785
sg7
I00
sg8
g5
sg9
g5
sg11
g5
sg12
I1061577848241
sg13
g5
sg14
g5
sg15
g5
sg16
g5
sg17
g5
sg18
I0
sg19
g5
sg20
g5
sg21
I1030329
sg22
g5
sg23
g5
sg24
I1
sg25
g5
sg26
g5
sg27
I0
sg28
I87410
sg29
I33785
sg30
I1030329
ssS'WALLS JR ROBERT H'
p88
(dp89
g3
I671
sg4
g5
sg6
I50936
sg7
I00
sg8
g5
sg9
S'rob.walls@enron.com'
p90
sg11
I540751
sg12
I25640250016368
sg13
g5
sg14
I215
sg15
g5
sg16
I146
sg17
I2
sg18
I850002
sg19
g5
sg20
I850000
sg21
I5898997
sg22
I17
sg23
I0
sg24
I540751
sg25
I1552453
sg26
I357091
sg27
I0
sg28
I1798780
sg29
I408027
sg30
I4346544
ssS'KITCHEN LOUISE'
p91
(dp92
g3
I8305
sg4
g5
sg6
I5774
sg7
I00
sg8
g5
sg9
S'louise.kitchen@enron.com'
p93
sg11
g5
sg12
I44341563006
sg13
g5
sg14
I3669
sg15
g5
sg16
I1728
sg17
I93925
sg18
I3193925
sg19
g5
sg20
I3100000
sg21
I547143
sg22
I251
sg23
I194
sg24
I1
sg25
I466101
sg26
I271442
sg27
I0
sg28
I3471141
sg29
I277216
sg30
I81042
ssS'CHAN RONNIE'
p94
(dp95
g3
g5
sg4
g5
sg6
g5
sg7
I00
sg8
I-98784
sg9
g5
sg11
g5
sg12
I1
sg13
I-32460
sg14
g5
sg15
g5
sg16
g5
sg17
g5
sg18
I0
sg19
I98784
sg20
g5
sg21
g5
sg22
g5
sg23
g5
sg24
I-98784
sg25
I32460
sg26
g5
sg27
I0
sg28
g5
sg29
I98784
sg30
g5
ssS'BELFER ROBERT'
p96
(dp97
g3
g5
sg4
I-102500
sg6
g5
sg7
I00
sg8
g5
sg9
g5
sg11
g5
sg12
I-144845505
sg13
I44093
sg14
g5
sg15
g5
sg16
g5
sg17
g5
sg18
I0
sg19
I3285
sg20
g5
sg21
I-44093
sg22
g5
sg23
g5
sg24
I1
sg25
g5
sg26
g5
sg27
I0
sg28
I102500
sg29
I0
sg30
I3285
ssS'SHANKMAN JEFFREY A'
p98
(dp99
g3
I3221
sg4
g5
sg6
I178979
sg7
I00
sg8
g5
sg9
S'jeffrey.shankman@enron.com'
p100
sg11
I554422
sg12
I2987663122430
sg13
g5
sg14
I1730
sg15
g5
sg16
I2681
sg17
I1191
sg18
I2001191
sg19
g5
sg20
I2000000
sg21
I2072035
sg22
I94
sg23
I83
sg24
I554422
sg25
I630137
sg26
I304110
sg27
I0
sg28
I3038702
sg29
I483089
sg30
I1441898
ssS'WODRASKA JOHN'
p101
(dp102
g3
g5
sg4
g5
sg6
g5
sg7
I00
sg8
g5
sg9
S'john.wodraska@enron.com'
p103
sg11
g5
sg12
I1
sg13
g5
sg14
g5
sg15
g5
sg16
g5
sg17
I189583
sg18
I189583
sg19
g5
sg20
g5
sg21
g5
sg22
g5
sg23
g5
sg24
I1
sg25
g5
sg26
g5
sg27
I0
sg28
I189583
sg29
I0
sg30
g5
ssS'BERGSIEKER RICHARD P'
p104
(dp105
g3
I383
sg4
g5
sg6
I59175
sg7
I00
sg8
I-485813
sg9
S'rick.bergsieker@enron.com'
p106
sg11
I180250
sg12
I659249
sg13
g5
sg14
I233
sg15
g5
sg16
I59
sg17
I427316
sg18
I677316
sg19
g5
sg20
I250000
sg21
I659249
sg22
I4
sg23
I0
sg24
I-87567793250
sg25
I659249
sg26
I187922
sg27
I0
sg28
I618850
sg29
I247097
sg30
g5
ssS'URQUHART JOHN A'
p107
(dp108
g3
g5
sg4
g5
sg6
I228656
sg7
I00
sg8
I-36666
sg9
g5
sg11
g5
sg12
I1
sg13
g5
sg14
g5
sg15
g5
sg16
g5
sg17
g5
sg18
I0
sg19
I36666
sg20
g5
sg21
g5
sg22
g5
sg23
g5
sg24
I-36666
sg25
g5
sg26
g5
sg27
I0
sg28
I228656
sg29
I228656
sg30
g5
ssS'BIBI PHILIPPE A'
p109
(dp110
g3
I1607
sg4
g5
sg6
I38559
sg7
I00
sg8
g5
sg9
S'philippe.bibi@enron.com'
p111
sg11
I369721
sg12
I2702543800944
sg13
g5
sg14
I1336
sg15
g5
sg16
I40
sg17
I425688
sg18
I1425688
sg19
g5
sg20
I1000000
sg21
I1843816
sg22
I23
sg23
I8
sg24
I369721
sg25
I378082
sg26
I213625
sg27
I0
sg28
I2047593
sg29
I252184
sg30
I1465734
ssS'RIEKER PAULA H'
p112
(dp113
g3
I1328
sg4
I214678
sg6
I33271
sg7
I01
sg8
I-100000
sg9
S'paula.rieker@enron.com'
p114
sg11
g5
sg12
I3137836940106
sg13
g5
sg14
I1258
sg15
g5
sg16
I82
sg17
I1950
sg18
I701950
sg19
g5
sg20
I700000
sg21
I1918887
sg22
I35
sg23
I48
sg24
I-100000
sg25
I283649
sg26
I249201
sg27
I0
sg28
I1099100
sg29
I282472
sg30
I1635238
ssS'WHALEY DAVID A'
p115
(dp116
g3
g5
sg4
g5
sg6
g5
sg7
I00
sg8
g5
sg9
g5
sg11
g5
sg12
I9745243524
sg13
g5
sg14
g5
sg15
g5
sg16
g5
sg17
g5
sg18
I0
sg19
g5
sg20
g5
sg21
I98718
sg22
g5
sg23
g5
sg24
I1
sg25
g5
sg26
g5
sg27
I0
sg28
g5
sg29
I0
sg30
I98718
ssS'BECK SALLY W'
p117
(dp118
g3
I7315
sg4
g5
sg6
I37172
sg7
I00
sg8
g5
sg9
S'sally.beck@enron.com'
p119
sg11
g5
sg12
I126027
sg13
g5
sg14
I2639
sg15
g5
sg16
I4343
sg17
I566
sg18
I700566
sg19
g5
sg20
I700000
sg21
I126027
sg22
I144
sg23
I386
sg24
I1
sg25
I126027
sg26
I231330
sg27
I0
sg28
I969068
sg29
I268502
sg30
g5
ssS'HAUG DAVID L'
p120
(dp121
g3
I573
sg4
g5
sg6
I475
sg7
I00
sg8
g5
sg9
S'david.haug@enron.com'
p122
sg11
g5
sg12
I2217299
sg13
g5
sg14
I471
sg15
g5
sg16
I19
sg17
g5
sg18
I0
sg19
g5
sg20
g5
sg21
I2217299
sg22
I4
sg23
I7
sg24
I1
sg25
I2217299
sg26
g5
sg27
I0
sg28
I475
sg29
I475
sg30
g5
ssS'ECHOLS JOHN B'
p123
(dp124
g3
g5
sg4
g5
sg6
I21530
sg7
I00
sg8
g5
sg9
S'john.echols@enron.com'
p125
sg11
I2234774
sg12
I606815457158
sg13
g5
sg14
g5
sg15
g5
sg16
g5
sg17
I53775
sg18
I253775
sg19
g5
sg20
I200000
sg21
I1008941
sg22
g5
sg23
g5
sg24
I2234774
sg25
I407503
sg26
I182245
sg27
I0
sg28
I2692324
sg29
I203775
sg30
I601438
ssS'MENDELSOHN JOHN'
p126
(dp127
g3
g5
sg4
g5
sg6
I148
sg7
I00
sg8
I-103750
sg9
g5
sg11
g5
sg12
I1
sg13
g5
sg14
g5
sg15
g5
sg16
g5
sg17
g5
sg18
I0
sg19
I103750
sg20
g5
sg21
g5
sg22
g5
sg23
g5
sg24
I-103750
sg25
g5
sg26
g5
sg27
I0
sg28
I148
sg29
I849
sg30
g5
ssS'HICKERSON GARY J'
p128
(dp129
g3
I1320
sg4
g5
sg6
I98849
sg7
I00
sg8
g5
sg9
S'gary.hickerson@enron.com'
p130
sg11
I69223
sg12
I441096
sg13
g5
sg14
I900
sg15
g5
sg16
I27
sg17
I1936
sg18
I1701936
sg19
g5
sg20
I1700000
sg21
I441096
sg22
I40
sg23
I1
sg24
I69223
sg25
I441096
sg26
I211788
sg27
I0
sg28
I2081796
sg29
I310637
sg30
g5
ssS'CLINE KENNETH W'
p131
(dp132
g3
g5
sg4
g5
sg6
g5
sg7
I00
sg8
g5
sg9
g5
sg11
g5
sg12
I189518
sg13
I-472568
sg14
g5
sg15
g5
sg16
g5
sg17
g5
sg18
I0
sg19
g5
sg20
g5
sg21
I189518
sg22
g5
sg23
g5
sg24
I1
sg25
I662086
sg26
g5
sg27
I0
sg28
g5
sg29
I0
sg30
g5
ssS'LEWIS RICHARD'
p133
(dp134
g3
I952
sg4
g5
sg6
g5
sg7
I00
sg8
g5
sg9
S'richard.lewis@enron.com'
p135
sg11
g5
sg12
I723311127529
sg13
g5
sg14
I739
sg15
g5
sg16
I26
sg17
g5
sg18
I0
sg19
g5
sg20
g5
sg21
I850477
sg22
I10
sg23
I0
sg24
I1
sg25
g5
sg26
g5
sg27
I0
sg28
g5
sg29
I0
sg30
I850477
ssS'HAYES ROBERT E'
p136
(dp137
g3
I504
sg4
I7961
sg6
g5
sg7
I00
sg8
g5
sg9
S'robert.hayes@enron.com'
p138
sg11
g5
sg12
I151418
sg13
g5
sg14
I50
sg15
g5
sg16
I12
sg17
g5
sg18
I0
sg19
g5
sg20
g5
sg21
I151418
sg22
I16
sg23
I0
sg24
I1
sg25
I151418
sg26
g5
sg27
I0
sg28
I7961
sg29
I0
sg30
g5
ssS'MCCARTY DANNY J'
p139
(dp140
g3
I1433
sg4
g5
sg6
g5
sg7
I00
sg8
g5
sg9
S'danny.mccarty@enron.com'
p141
sg11
g5
sg12
I504214783125
sg13
g5
sg14
I508
sg15
g5
sg16
I215
sg17
g5
sg18
I0
sg19
g5
sg20
g5
sg21
I758931
sg22
I25
sg23
I2
sg24
I1
sg25
I94556
sg26
g5
sg27
I0
sg28
g5
sg29
I0
sg30
I664375
ssS'KOPPER MICHAEL J'
p142
(dp143
g3
g5
sg4
g5
sg6
I118134
sg7
I01
sg8
g5
sg9
S'michael.kopper@enron.com'
p144
sg11
I602671
sg12
I985032
sg13
g5
sg14
g5
sg15
g5
sg16
g5
sg17
I907502
sg18
I1707502
sg19
g5
sg20
I800000
sg21
I985032
sg22
g5
sg23
g5
sg24
I602671
sg25
I985032
sg26
I224305
sg27
I0
sg28
I2652612
sg29
I342439
sg30
g5
ssS'LEFF DANIEL P'
p145
(dp146
g3
I2822
sg4
g5
sg6
g5
sg7
I00
sg8
g5
sg9
S'dan.leff@enron.com'
p147
sg11
I1387399
sg12
I360528
sg13
g5
sg14
I2672
sg15
g5
sg16
I63
sg17
I3083
sg18
I1003083
sg19
g5
sg20
I1000000
sg21
I360528
sg22
I67
sg23
I14
sg24
I1387399
sg25
I360528
sg26
I273746
sg27
I0
sg28
I2664228
sg29
I273746
sg30
g5
ssS'LAVORATO JOHN J'
p148
(dp149
g3
I7259
sg4
g5
sg6
I49537
sg7
I00
sg8
g5
sg9
S'john.lavorato@enron.com'
p150
sg11
I2035380
sg12
I21490126060280
sg13
g5
sg14
I3962
sg15
g5
sg16
I2585
sg17
I1552
sg18
I8001552
sg19
g5
sg20
I8000000
sg21
I5167144
sg22
I528
sg23
I411
sg24
I2035380
sg25
I1008149
sg26
I339288
sg27
I0
sg28
I10425757
sg29
I388825
sg30
I4158995
ssS'BERBERIAN DAVID'
p151
(dp152
g3
g5
sg4
g5
sg6
I11892
sg7
I00
sg8
g5
sg9
S'david.berberian@enron.com'
p153
sg11
g5
sg12
I4050619855936
sg13
g5
sg14
g5
sg15
g5
sg16
g5
sg17
g5
sg18
I0
sg19
g5
sg20
g5
sg21
I2493616
sg22
g5
sg23
g5
sg24
I1
sg25
I869220
sg26
I216582
sg27
I0
sg28
I228474
sg29
I228474
sg30
I1624396
ssS'DETMERING TIMOTHY J'
p154
(dp155
g3
g5
sg4
I875307
sg6
I52255
sg7
I00
sg8
I-775241
sg9
S'timothy.detmering@enron.com'
p156
sg11
I415657
sg12
I4112236458225
sg13
I-315068
sg14
g5
sg15
g5
sg16
g5
sg17
I1105
sg18
I426105
sg19
g5
sg20
I425000
sg21
I2027865
sg22
g5
sg23
g5
sg24
I-322234348337
sg25
I315068
sg26
I210500
sg27
I0
sg28
I1204583
sg29
I262755
sg30
I2027865
ssS'WAKEHAM JOHN'
p157
(dp158
g3
g5
sg4
g5
sg6
I103773
sg7
I00
sg8
g5
sg9
g5
sg11
g5
sg12
I1
sg13
g5
sg14
g5
sg15
g5
sg16
g5
sg17
g5
sg18
I0
sg19
I109298
sg20
g5
sg21
g5
sg22
g5
sg23
g5
sg24
I1
sg25
g5
sg26
g5
sg27
I0
sg28
I213071
sg29
I103773
sg30
g5
ssS'POWERS WILLIAM'
p159
(dp160
g3
I653
sg4
g5
sg6
g5
sg7
I00
sg8
I-17500
sg9
S'ken.powers@enron.com'
p161
sg11
g5
sg12
I1
sg13
g5
sg14
I12
sg15
g5
sg16
I26
sg17
g5
sg18
I0
sg19
I17500
sg20
g5
sg21
g5
sg22
I0
sg23
I0
sg24
I-17500
sg25
g5
sg26
g5
sg27
I0
sg28
g5
sg29
I17500
sg30
g5
ssS'GOLD JOSEPH'
p162
(dp163
g3
g5
sg4
g5
sg6
g5
sg7
I00
sg8
g5
sg9
S'joe.gold@enron.com'
p164
sg11
I304805
sg12
I383090365665
sg13
g5
sg14
g5
sg15
g5
sg16
g5
sg17
I819288
sg18
I1569288
sg19
g5
sg20
I750000
sg21
I877611
sg22
g5
sg23
g5
sg24
I304805
sg25
I441096
sg26
I272880
sg27
I0
sg28
I2146973
sg29
I272880
sg30
I436515
ssS'BANNANTINE JAMES M'
p165
(dp166
g3
I566
sg4
g5
sg6
I56301
sg7
I00
sg8
I-5104
sg9
S'james.bannantine@enron.com'
p167
sg11
g5
sg12
I21215971629459
sg13
I-560222
sg14
I465
sg15
g5
sg16
I29
sg17
I864523
sg18
I864523
sg19
g5
sg20
g5
sg21
I5243487
sg22
I39
sg23
I0
sg24
I-5104
sg25
I1757552
sg26
I477
sg27
I0
sg28
I916197
sg29
I56778
sg30
I4046157
ssS'DUNCAN JOHN H'
p168
(dp169
g3
g5
sg4
g5
sg6
g5
sg7
I00
sg8
I-25000
sg9
g5
sg11
g5
sg12
I138198062500
sg13
g5
sg14
g5
sg15
g5
sg16
g5
sg17
g5
sg18
I0
sg19
I102492
sg20
g5
sg21
I371750
sg22
g5
sg23
g5
sg24
I-25000
sg25
g5
sg26
g5
sg27
I0
sg28
I77492
sg29
I1
sg30
I371750
ssS'SHAPIRO RICHARD S'
p170
(dp171
g3
I15149
sg4
g5
sg6
I137767
sg7
I00
sg8
g5
sg9
S'richard.shapiro@enron.com'
p172
sg11
g5
sg12
I599935726837
sg13
g5
sg14
I4527
sg15
g5
sg16
I1215
sg17
I705
sg18
I650705
sg19
g5
sg20
I650000
sg21
I987001
sg22
I74
sg23
I65
sg24
I1
sg25
I379164
sg26
I269076
sg27
I0
sg28
I1057548
sg29
I406843
sg30
I607837
ssS'SHERRIFF JOHN R'
p173
(dp174
g3
I3187
sg4
g5
sg6
g5
sg7
I00
sg8
g5
sg9
S'john.sherriff@enron.com'
p175
sg11
I554422
sg12
I5743427941956
sg13
g5
sg14
I2103
sg15
g5
sg16
I92
sg17
I1852186
sg18
I3352186
sg19
g5
sg20
I1500000
sg21
I3128982
sg22
I28
sg23
I23
sg24
I554422
sg25
I1293424
sg26
I428780
sg27
I0
sg28
I4335388
sg29
I428780
sg30
I1835558
ssS'SHELBY REX'
p176
(dp177
g3
I225
sg4
g5
sg6
I22884
sg7
I01
sg8
I-4167
sg9
S'rex.shelby@enron.com'
p178
sg11
g5
sg12
I4050619855936
sg13
g5
sg14
I91
sg15
g5
sg16
I39
sg17
I1573324
sg18
I1773324
sg19
g5
sg20
I200000
sg21
I2493616
sg22
I13
sg23
I14
sg24
I-4167
sg25
I869220
sg26
I211844
sg27
I0
sg28
I2003885
sg29
I234728
sg30
I1624396
ssS'LEMAISTRE CHARLES'
p179
(dp180
g3
g5
sg4
g5
sg6
g5
sg7
I00
sg8
I-25000
sg9
g5
sg11
g5
sg12
I170468242884
sg13
g5
sg14
g5
sg15
g5
sg16
g5
sg17
g5
sg18
I0
sg19
I112492
sg20
g5
sg21
I412878
sg22
g5
sg23
g5
sg24
I-25000
sg25
g5
sg26
g5
sg27
I0
sg28
I87492
sg29
I1
sg30
I412878
ssS'DEFFNER JOSEPH M'
p181
(dp182
g3
I714
sg4
g5
sg6
I41626
sg7
I00
sg8
g5
sg9
S'joseph.deffner@enron.com'
p183
sg11
I335349
sg12
I2766768758
sg13
g5
sg14
I552
sg15
g5
sg16
I74
sg17
I25553
sg18
I625553
sg19
g5
sg20
I600000
sg21
I159211
sg22
I115
sg23
I4
sg24
I335349
sg25
I141833
sg26
I206121
sg27
I0
sg28
I1208649
sg29
I247747
sg30
I17378
ssS'KISHKILL JOSEPH G'
p184
(dp185
g3
g5
sg4
g5
sg6
I116335
sg7
I00
sg8
I-51042
sg9
S'joe.kishkill@enron.com'
p186
sg11
g5
sg12
I1034346
sg13
g5
sg14
g5
sg15
g5
sg16
g5
sg17
I465357
sg18
I465357
sg19
g5
sg20
g5
sg21
I1034346
sg22
g5
sg23
g5
sg24
I-51042
sg25
I1034346
sg26
I174246
sg27
I0
sg28
I704896
sg29
I290581
sg30
g5
ssS'WHALLEY LAWRENCE G'
p187
(dp188
g3
I6019
sg4
g5
sg6
I57838
sg7
I00
sg8
g5
sg9
S'greg.whalley@enron.com'
p189
sg11
I808346
sg12
I19957563605520
sg13
g5
sg14
I3920
sg15
g5
sg16
I556
sg17
I301026
sg18
I3301026
sg19
g5
sg20
I3000000
sg21
I6079137
sg22
I186
sg23
I24
sg24
I808346
sg25
I2796177
sg26
I510364
sg27
I0
sg28
I4677574
sg29
I568202
sg30
I3282960
ssS'MCCONNELL MICHAEL S'
p190
(dp191
g3
I3329
sg4
g5
sg6
I81364
sg7
I00
sg8
g5
sg9
S'mike.mcconnell@enron.com'
p192
sg11
I554422
sg12
I5033406829790
sg13
g5
sg14
I2189
sg15
g5
sg16
I2742
sg17
I540
sg18
I1100540
sg19
g5
sg20
I1100000
sg21
I3101279
sg22
I92
sg23
I194
sg24
I554422
sg25
I1478269
sg26
I365038
sg27
I0
sg28
I2101364
sg29
I446402
sg30
I1623010
ssS'PIRO JIM'
p193
(dp194
g3
I58
sg4
g5
sg6
g5
sg7
I00
sg8
g5
sg9
S'jim.piro@enron.com'
p195
sg11
g5
sg12
I47304
sg13
g5
sg14
I3
sg15
g5
sg16
I16
sg17
g5
sg18
I0
sg19
g5
sg20
g5
sg21
I47304
sg22
I0
sg23
I1
sg24
I1
sg25
I47304
sg26
g5
sg27
I0
sg28
g5
sg29
I0
sg30
g5
ssS'DELAINEY DAVID W'
p196
(dp197
g3
I3093
sg4
g5
sg6
I86174
sg7
I01
sg8
g5
sg9
S'david.delainey@enron.com'
p198
sg11
I1294981
sg12
I8280680362493
sg13
g5
sg14
I2097
sg15
g5
sg16
I3069
sg17
I1661
sg18
I3001661
sg19
g5
sg20
I3000000
sg21
I3614261
sg22
I66
sg23
I609
sg24
I1294981
sg25
I1323148
sg26
I365163
sg27
I0
sg28
I4747979
sg29
I451337
sg30
I2291113
ssS'SULLIVAN-SHAKLOVITZ COLLEEN'
p199
(dp200
g3
g5
sg4
I181993
sg6
g5
sg7
I00
sg8
g5
sg9
g5
sg11
I554422
sg12
I1856065640625
sg13
g5
sg14
g5
sg15
g5
sg16
g5
sg17
I162
sg18
I100162
sg19
g5
sg20
I100000
sg21
I1362375
sg22
g5
sg23
g5
sg24
I554422
sg25
g5
sg26
I162779
sg27
I0
sg28
I999356
sg29
I162779
sg30
I1362375
ssS'WROBEL BRUCE'
p201
(dp202
g3
g5
sg4
g5
sg6
g5
sg7
I00
sg8
g5
sg9
g5
sg11
g5
sg12
I19357156900
sg13
g5
sg14
g5
sg15
g5
sg16
g5
sg17
g5
sg18
I0
sg19
g5
sg20
g5
sg21
I139130
sg22
g5
sg23
g5
sg24
I1
sg25
g5
sg26
g5
sg27
I0
sg28
g5
sg29
I0
sg30
I139130
ssS'LINDHOLM TOD A'
p203
(dp204
g3
g5
sg4
I204075
sg6
I57727
sg7
I00
sg8
g5
sg9
S'tod.lindholm@enron.com'
p205
sg11
I175000
sg12
I7811772371088
sg13
g5
sg14
g5
sg15
g5
sg16
g5
sg17
I2630
sg18
I202630
sg19
g5
sg20
I200000
sg21
I3064208
sg22
g5
sg23
g5
sg24
I175000
sg25
I514847
sg26
I236457
sg27
I0
sg28
I875889
sg29
I294184
sg30
I2549361
ssS'MEYER JEROME J'
p206
(dp207
g3
g5
sg4
g5
sg6
I2151
sg7
I00
sg8
I-38346
sg9
g5
sg11
g5
sg12
I1
sg13
g5
sg14
g5
sg15
g5
sg16
g5
sg17
g5
sg18
I0
sg19
I38346
sg20
g5
sg21
g5
sg22
g5
sg23
g5
sg24
I-38346
sg25
g5
sg26
g5
sg27
I0
sg28
I2151
sg29
I2168
sg30
g5
ssS'LAY KENNETH L'
p208
(dp209
g3
I4273
sg4
I202911
sg6
I99832
sg7
I01
sg8
I-300000
sg9
S'kenneth.lay@enron.com'
p210
sg11
I3600000
sg12
I1686851817413952
sg13
g5
sg14
I2411
sg15
I81525000
sg16
I36
sg17
I10359729
sg18
I17359729
sg19
g5
sg20
I7000000
sg21
I49110078
sg22
I123
sg23
I16
sg24
I-1080000000000
sg25
I14761694
sg26
I1072321
sg27
I8138803800000
sg28
I103559793
sg29
I1172153
sg30
I34348384
ssS'BUTTS ROBERT H'
p211
(dp212
g3
g5
sg4
g5
sg6
I9410
sg7
I00
sg8
I-75000
sg9
S'bob.butts@enron.com'
p213
sg11
I175000
sg12
I417619
sg13
g5
sg14
g5
sg15
g5
sg16
g5
sg17
I150656
sg18
I900656
sg19
g5
sg20
I750000
sg21
I417619
sg22
g5
sg23
g5
sg24
I-13125000000
sg25
I417619
sg26
I261516
sg27
I0
sg28
I1271582
sg29
I270926
sg30
g5
ssS'OLSON CINDY K'
p214
(dp215
g3
I1184
sg4
I77716
sg6
I63791
sg7
I00
sg8
g5
sg9
S'cindy.olson@enron.com'
p216
sg11
I100000
sg12
I4267359660942
sg13
g5
sg14
I856
sg15
g5
sg16
I52
sg17
I972
sg18
I750972
sg19
g5
sg20
I750000
sg21
I2606763
sg22
I20
sg23
I15
sg24
I100000
sg25
I969729
sg26
I329078
sg27
I0
sg28
I1321557
sg29
I392869
sg30
I1637034
ssS'MCDONALD REBECCA'
p217
(dp218
g3
I894
sg4
g5
sg6
g5
sg7
I00
sg8
g5
sg9
S'rebecca.mcdonald@enron.com'
p219
sg11
g5
sg12
I1280873163166
sg13
g5
sg14
I720
sg15
g5
sg16
I13
sg17
g5
sg18
I0
sg19
g5
sg20
g5
sg21
I1691366
sg22
I54
sg23
I1
sg24
I1
sg25
I934065
sg26
g5
sg27
I0
sg28
g5
sg29
I0
sg30
I757301
ssS'CUMBERLAND MICHAEL S'
p220
(dp221
g3
g5
sg4
g5
sg6
I22344
sg7
I00
sg8
g5
sg9
g5
sg11
I275000
sg12
I207940
sg13
g5
sg14
g5
sg15
g5
sg16
g5
sg17
I713
sg18
I325713
sg19
g5
sg20
I325000
sg21
I207940
sg22
g5
sg23
g5
sg24
I275000
sg25
I207940
sg26
I184899
sg27
I0
sg28
I807956
sg29
I207243
sg30
g5
ssS'GAHN ROBERT S'
p222
(dp223
g3
g5
sg4
I73122
sg6
I50080
sg7
I00
sg8
I-1042
sg9
g5
sg11
g5
sg12
I26519890859
sg13
g5
sg14
g5
sg15
g5
sg16
g5
sg17
I76547
sg18
I586417
sg19
g5
sg20
I509870
sg21
I318607
sg22
g5
sg23
g5
sg24
I-1042
sg25
I235370
sg26
I192008
sg27
I0
sg28
I900585
sg29
I242088
sg30
I83237
ssS'MCCLELLAN GEORGE'
p224
(dp225
g3
I1744
sg4
g5
sg6
I228763
sg7
I00
sg8
I-125000
sg9
S'george.mcclellan@enron.com'
p226
sg11
g5
sg12
I480342779665
sg13
g5
sg14
I1469
sg15
g5
sg16
I49
sg17
I51587
sg18
I951587
sg19
g5
sg20
I900000
sg21
I947861
sg22
I52
sg23
I0
sg24
I-125000
sg25
I441096
sg26
I263413
sg27
I0
sg28
I1318763
sg29
I492176
sg30
I506765
ssS'HERMANN ROBERT J'
p227
(dp228
g3
g5
sg4
g5
sg6
I48357
sg7
I00
sg8
I-280000
sg9
S'robert.hermann@enron.com'
p229
sg11
I150000
sg12
I125274750000
sg13
g5
sg14
g5
sg15
g5
sg16
g5
sg17
I416441
sg18
I1116441
sg19
g5
sg20
I700000
sg21
I668132
sg22
g5
sg23
g5
sg24
I-42000000000
sg25
I480632
sg26
I262663
sg27
I0
sg28
I1297461
sg29
I311020
sg30
I187500
ssS'SCRIMSHAW MATTHEW'
p230
(dp231
g3
g5
sg4
g5
sg6
g5
sg7
I00
sg8
g5
sg9
S'matthew.scrimshaw@enron.com'
p232
sg11
g5
sg12
I576926836249
sg13
g5
sg14
g5
sg15
g5
sg16
g5
sg17
g5
sg18
I0
sg19
g5
sg20
g5
sg21
I759557
sg22
g5
sg23
g5
sg24
I1
sg25
g5
sg26
g5
sg27
I0
sg28
g5
sg29
I0
sg30
I759557
ssS'GATHMANN WILLIAM D'
p233
(dp234
g3
g5
sg4
g5
sg6
g5
sg7
I00
sg8
g5
sg9
g5
sg11
g5
sg12
I3411706225760
sg13
I-72419
sg14
g5
sg15
g5
sg16
g5
sg17
g5
sg18
I0
sg19
g5
sg20
g5
sg21
I1945360
sg22
g5
sg23
g5
sg24
I1
sg25
I264013
sg26
g5
sg27
I0
sg28
g5
sg29
I0
sg30
I1753766
ssS'HAEDICKE MARK E'
p235
(dp236
g3
I4009
sg4
I2157527
sg6
I76169
sg7
I00
sg8
I-934484
sg9
S'mark.haedicke@enron.com'
p237
sg11
I983346
sg12
I488883472500
sg13
I-329825
sg14
I1847
sg15
g5
sg16
I1941
sg17
I52382
sg18
I1202382
sg19
g5
sg20
I1150000
sg21
I803094
sg22
I180
sg23
I61
sg24
I-918921103464
sg25
I524169
sg26
I374125
sg27
I0
sg28
I3859065
sg29
I450294
sg30
I608750
ssS'BOWEN JR RAYMOND M'
p238
(dp239
g3
I1858
sg4
g5
sg6
I65907
sg7
I01
sg8
I-833
sg9
S'raymond.bowen@enron.com'
p240
sg11
I974293
sg12
I252055
sg13
g5
sg14
I1593
sg15
g5
sg16
I27
sg17
I1621
sg18
I1351621
sg19
g5
sg20
I1350000
sg21
I252055
sg22
I140
sg23
I15
sg24
I-811586069
sg25
I252055
sg26
I278601
sg27
I0
sg28
I2669589
sg29
I344508
sg30
g5
ssS'GILLIS JOHN'
p241
(dp242
g3
g5
sg4
g5
sg6
g5
sg7
I00
sg8
g5
sg9
g5
sg11
g5
sg12
I839538723
sg13
g5
sg14
g5
sg15
g5
sg16
g5
sg17
g5
sg18
I0
sg19
g5
sg20
g5
sg21
I85641
sg22
g5
sg23
g5
sg24
I1
sg25
I75838
sg26
g5
sg27
I0
sg28
g5
sg29
I0
sg30
I9803
ssS'FITZGERALD JAY L'
p243
(dp244
g3
I936
sg4
g5
sg6
I23870
sg7
I00
sg8
g5
sg9
S'jay.fitzgerald@enron.com'
p245
sg11
I556416
sg12
I1077248093796
sg13
g5
sg14
I723
sg15
g5
sg16
I16
sg17
I285414
sg18
I635414
sg19
g5
sg20
I350000
sg21
I1621236
sg22
I1
sg23
I8
sg24
I556416
sg25
I956775
sg26
I199157
sg27
I0
sg28
I1414857
sg29
I223027
sg30
I664461
ssS'MORAN MICHAEL P'
p246
(dp247
g3
I672
sg4
g5
sg6
g5
sg7
I00
sg8
g5
sg9
S'michael.moran@enron.com'
p248
sg11
g5
sg12
I13166513999
sg13
g5
sg14
I127
sg15
g5
sg16
I19
sg17
g5
sg18
I0
sg19
g5
sg20
g5
sg21
I221141
sg22
I0
sg23
I0
sg24
I1
sg25
I161602
sg26
g5
sg27
I0
sg28
g5
sg29
I0
sg30
I59539
ssS'REDMOND BRIAN L'
p249
(dp250
g3
I1671
sg4
g5
sg6
I14689
sg7
I00
sg8
g5
sg9
S'brian.redmond@enron.com'
p251
sg11
g5
sg12
I59248750638636
sg13
g5
sg14
I1063
sg15
g5
sg16
I221
sg17
g5
sg18
I0
sg19
g5
sg20
g5
sg21
I7890324
sg22
I204
sg23
I49
sg24
I1
sg25
I381285
sg26
I96840
sg27
I0
sg28
I111529
sg29
I111529
sg30
I7509039
ssS'BAZELIDES PHILIP J'
p252
(dp253
g3
g5
sg4
I684694
sg6
g5
sg7
I00
sg8
g5
sg9
g5
sg11
I93750
sg12
I2558851328881
sg13
g5
sg14
g5
sg15
g5
sg16
g5
sg17
I874
sg18
I874
sg19
g5
sg20
g5
sg21
I1599641
sg22
g5
sg23
g5
sg24
I93750
sg25
g5
sg26
I80818
sg27
I0
sg28
I860136
sg29
I80818
sg30
I1599641
ssS'BELDEN TIMOTHY N'
p254
(dp255
g3
I7991
sg4
I2144013
sg6
I17355
sg7
I01
sg8
I-2334434
sg9
S'tim.belden@enron.com'
p256
sg11
g5
sg12
I1058652920880
sg13
g5
sg14
I5521
sg15
g5
sg16
I484
sg17
I210698
sg18
I5460697
sg19
g5
sg20
I5249999
sg21
I1110705
sg22
I228
sg23
I108
sg24
I-2334434
sg25
I157569
sg26
I213999
sg27
I0
sg28
I5501630
sg29
I231354
sg30
I953136
ssS'DURAN WILLIAM D'
p257
(dp258
g3
I904
sg4
g5
sg6
I25785
sg7
I00
sg8
g5
sg9
S'w.duran@enron.com'
p259
sg11
I1105218
sg12
I2382386360790
sg13
g5
sg14
I599
sg15
g5
sg16
I12
sg17
I1568
sg18
I751568
sg19
g5
sg20
I750000
sg21
I1640910
sg22
I106
sg23
I3
sg24
I1105218
sg25
I189041
sg26
I210692
sg27
I0
sg28
I2093263
sg29
I236477
sg30
I1451869
ssS'THORN TERENCE H'
p260
(dp261
g3
I266
sg4
I16586
sg6
I46145
sg7
I00
sg8
g5
sg9
S'terence.thorn@enron.com'
p262
sg11
I200000
sg12
I21451121062896
sg13
g5
sg14
I73
sg15
g5
sg16
I41
sg17
I426629
sg18
I426629
sg19
g5
sg20
g5
sg21
I4817796
sg22
I0
sg23
I0
sg24
I200000
sg25
I365320
sg26
I222093
sg27
I0
sg28
I911453
sg29
I268238
sg30
I4452476
ssS'FASTOW ANDREW S'
p263
(dp264
g3
g5
sg4
g5
sg6
I55921
sg7
I01
sg8
I-1386055
sg9
S'andrew.fastow@enron.com'
p265
sg11
I1736055
sg12
I1794412
sg13
g5
sg14
g5
sg15
g5
sg16
g5
sg17
I277464
sg18
I1577464
sg19
g5
sg20
I1300000
sg21
I1794412
sg22
g5
sg23
g5
sg24
I-2406267713025
sg25
I1794412
sg26
I440698
sg27
I0
sg28
I2424083
sg29
I496619
sg30
g5
ssS'FOY JOE'
p266
(dp267
g3
I57
sg4
I181755
sg6
g5
sg7
I00
sg8
g5
sg9
S'tracy.foy@enron.com'
p268
sg11
g5
sg12
I117946912356
sg13
g5
sg14
I2
sg15
g5
sg16
I13
sg17
g5
sg18
I0
sg19
g5
sg20
g5
sg21
I343434
sg22
I0
sg23
I0
sg24
I1
sg25
g5
sg26
g5
sg27
I0
sg28
I181755
sg29
I0
sg30
I343434
ssS'CALGER CHRISTOPHER F'
p269
(dp270
g3
I2598
sg4
g5
sg6
I35818
sg7
I01
sg8
I-262500
sg9
S'christopher.calger@enron.com'
p271
sg11
I375304
sg12
I126027
sg13
g5
sg14
I2188
sg15
g5
sg16
I144
sg17
I486
sg18
I1250486
sg19
g5
sg20
I1250000
sg21
I126027
sg22
I199
sg23
I25
sg24
I-98517300000
sg25
I126027
sg26
I240189
sg27
I0
sg28
I1639297
sg29
I276007
sg30
g5
ssS'RICE KENNETH D'
p272
(dp273
g3
I905
sg4
g5
sg6
I46950
sg7
I01
sg8
I-3504386
sg9
S'ken.rice@enron.com'
p274
sg11
I1617011
sg12
I446210961910325
sg13
g5
sg14
I864
sg15
g5
sg16
I18
sg17
I174839
sg18
I1924839
sg19
g5
sg20
I1750000
sg21
I22542539
sg22
I42
sg23
I4
sg24
I-5666630710246
sg25
I2748364
sg26
I420636
sg27
I0
sg28
I505050
sg29
I467586
sg30
I19794175
ssS'KAMINSKI WINCENTY J'
p275
(dp276
g3
I4607
sg4
g5
sg6
I83585
sg7
I00
sg8
g5
sg9
S'vince.kaminski@enron.com'
p277
sg11
I323466
sg12
I829641210370
sg13
g5
sg14
I583
sg15
g5
sg16
I14368
sg17
I4669
sg18
I404669
sg19
g5
sg20
I400000
sg21
I976037
sg22
I41
sg23
I171
sg24
I323466
sg25
I126027
sg26
I275101
sg27
I0
sg28
I1086821
sg29
I358686
sg30
I850010
ssS'LOCKHART EUGENE E'
p278
(dp279
g3
g5
sg4
g5
sg6
g5
sg7
I00
sg8
g5
sg9
g5
sg11
g5
sg12
I1
sg13
g5
sg14
g5
sg15
g5
sg16
g5
sg17
g5
sg18
I0
sg19
g5
sg20
g5
sg21
g5
sg22
g5
sg23
g5
sg24
I1
sg25
g5
sg26
g5
sg27
I0
sg28
g5
sg29
I0
sg30
g5
ssS'COX DAVID'
p280
(dp281
g3
I102
sg4
g5
sg6
I27861
sg7
I00
sg8
I-41250
sg9
S'chip.cox@enron.com'
p282
sg11
g5
sg12
I58262154783
sg13
g5
sg14
I71
sg15
g5
sg16
I33
sg17
I494
sg18
I800494
sg19
g5
sg20
I800000
sg21
I495633
sg22
I0
sg23
I4
sg24
I-41250
sg25
I378082
sg26
I314288
sg27
I0
sg28
I1101393
sg29
I342149
sg30
I117551
ssS'OVERDYKE JR JERE C'
p283
(dp284
g3
g5
sg4
g5
sg6
I18834
sg7
I00
sg8
g5
sg9
S'jere.overdyke@enron.com'
p285
sg11
I135836
sg12
I38486013793332
sg13
g5
sg14
g5
sg15
g5
sg16
g5
sg17
I176
sg18
I176
sg19
g5
sg20
g5
sg21
I7307594
sg22
g5
sg23
g5
sg24
I135836
sg25
I2041016
sg26
I94941
sg27
I0
sg28
I249787
sg29
I113775
sg30
I5266578
ssS'PEREIRA PAULO V. FERRAZ'
p286
(dp287
g3
g5
sg4
g5
sg6
I27942
sg7
I00
sg8
I-101250
sg9
g5
sg11
g5
sg12
I1
sg13
g5
sg14
g5
sg15
g5
sg16
g5
sg17
g5
sg18
I0
sg19
I101250
sg20
g5
sg21
g5
sg22
g5
sg23
g5
sg24
I-101250
sg25
g5
sg26
g5
sg27
I0
sg28
I27942
sg29
I27945
sg30
g5
ssS'STABLER FRANK'
p288
(dp289
g3
g5
sg4
g5
sg6
I16514
sg7
I00
sg8
g5
sg9
S'frank.stabler@enron.com'
p290
sg11
g5
sg12
I511734
sg13
g5
sg14
g5
sg15
g5
sg16
g5
sg17
I356071
sg18
I856071
sg19
g5
sg20
I500000
sg21
I511734
sg22
g5
sg23
g5
sg24
I1
sg25
I511734
sg26
I239502
sg27
I0
sg28
I1112087
sg29
I256016
sg30
g5
ssS'SKILLING JEFFREY K'
p291
(dp292
g3
I3627
sg4
g5
sg6
I29336
sg7
I01
sg8
g5
sg9
S'jeff.skilling@enron.com'
p293
sg11
I1920000
sg12
I502303186000000
sg13
g5
sg14
I2042
sg15
g5
sg16
I108
sg17
I22122
sg18
I5622122
sg19
g5
sg20
I5600000
sg21
I26093672
sg22
I88
sg23
I30
sg24
I1920000
sg25
I6843672
sg26
I1111258
sg27
I0
sg28
I8682716
sg29
I1140594
sg30
I19250000
ssS'BLAKE JR. NORMAN P'
p294
(dp295
g3
g5
sg4
g5
sg6
I1279
sg7
I00
sg8
I-113784
sg9
g5
sg11
g5
sg12
I1
sg13
g5
sg14
g5
sg15
g5
sg16
g5
sg17
g5
sg18
I0
sg19
I113784
sg20
g5
sg21
g5
sg22
g5
sg23
g5
sg24
I-113784
sg25
g5
sg26
g5
sg27
I0
sg28
I1279
sg29
I1367
sg30
g5
ssS'SHERRICK JEFFREY B'
p296
(dp297
g3
I613
sg4
g5
sg6
g5
sg7
I00
sg8
g5
sg9
S'jeffrey.sherrick@enron.com'
p298
sg11
g5
sg12
I2613958795492
sg13
g5
sg14
I583
sg15
g5
sg16
I25
sg17
g5
sg18
I0
sg19
g5
sg20
g5
sg21
I1832468
sg22
I39
sg23
I18
sg24
I1
sg25
I405999
sg26
g5
sg27
I0
sg28
g5
sg29
I0
sg30
I1426469
ssS'PRENTICE JAMES'
p299
(dp300
g3
g5
sg4
I564348
sg6
g5
sg7
I00
sg8
g5
sg9
S'james.prentice@enron.com'
p301
sg11
g5
sg12
I970458394240
sg13
g5
sg14
g5
sg15
g5
sg16
g5
sg17
g5
sg18
I0
sg19
g5
sg20
g5
sg21
I1095040
sg22
g5
sg23
g5
sg24
I1
sg25
I208809
sg26
g5
sg27
I0
sg28
I564348
sg29
I0
sg30
I886231
ssS'GRAY RODNEY'
p302
(dp303
g3
g5
sg4
I93585
sg6
g5
sg7
I00
sg8
g5
sg9
g5
sg11
I365625
sg12
I1
sg13
g5
sg14
g5
sg15
g5
sg16
g5
sg17
I680833
sg18
I680833
sg19
g5
sg20
g5
sg21
g5
sg22
g5
sg23
g5
sg24
I365625
sg25
g5
sg26
I6615
sg27
I0
sg28
I1146658
sg29
I6615
sg30
g5
ssS'PICKERING MARK R'
p304
(dp305
g3
I898
sg4
g5
sg6
I31653
sg7
I00
sg8
g5
sg9
S'mark.pickering@enron.com'
p306
sg11
g5
sg12
I829324804
sg13
g5
sg14
I728
sg15
I400000
sg16
I67
sg17
g5
sg18
I300000
sg19
g5
sg20
I300000
sg21
I28798
sg22
I7
sg23
I0
sg24
I1
sg25
g5
sg26
I655037
sg27
I12661200000
sg28
I1386690
sg29
I686690
sg30
I28798
ssS'NOLES JAMES L'
p307
(dp308
g3
g5
sg4
I774401
sg6
g5
sg7
I00
sg8
g5
sg9
g5
sg11
g5
sg12
I368705
sg13
I-94556
sg14
g5
sg15
g5
sg16
g5
sg17
g5
sg18
I0
sg19
g5
sg20
g5
sg21
I368705
sg22
g5
sg23
g5
sg24
I1
sg25
I463261
sg26
g5
sg27
I0
sg28
I774401
sg29
I0
sg30
g5
ssS'KEAN STEVEN J'
p309
(dp310
g3
I12754
sg4
g5
sg6
I41953
sg7
I00
sg8
g5
sg9
S'steven.kean@enron.com'
p311
sg11
I300000
sg12
I12442959498816
sg13
g5
sg14
I3639
sg15
g5
sg16
I6759
sg17
I1231
sg18
I1001231
sg19
g5
sg20
I1000000
sg21
I6153642
sg22
I140
sg23
I387
sg24
I300000
sg25
I4131594
sg26
I404338
sg27
I0
sg28
I1747522
sg29
I446291
sg30
I2022048
ssS'FOWLER PEGGY'
p312
(dp313
g3
I517
sg4
g5
sg6
g5
sg7
I00
sg8
g5
sg9
S'kulvinder.fowler@enron.com'
p314
sg11
g5
sg12
I2496495736344
sg13
g5
sg14
I10
sg15
g5
sg16
I36
sg17
g5
sg18
I0
sg19
g5
sg20
g5
sg21
I1884748
sg22
I0
sg23
I0
sg24
I1
sg25
I560170
sg26
g5
sg27
I0
sg28
g5
sg29
I0
sg30
I1324578
ssS'WASAFF GEORGE'
p315
(dp316
g3
I400
sg4
I831299
sg6
g5
sg7
I00
sg8
I-583325
sg9
S'george.wasaff@enron.com'
p317
sg11
I200000
sg12
I3430654907020
sg13
g5
sg14
I337
sg15
g5
sg16
I30
sg17
I1425
sg18
I326425
sg19
g5
sg20
I325000
sg21
I2056427
sg22
I22
sg23
I7
sg24
I-116665000000
sg25
I388167
sg26
I259996
sg27
I0
sg28
I1034395
sg29
I259996
sg30
I1668260
ssS'WHITE JR THOMAS E'
p318
(dp319
g3
g5
sg4
g5
sg6
I81353
sg7
I00
sg8
g5
sg9
S'thomas.white@enron.com'
p320
sg11
g5
sg12
I19642669593027
sg13
g5
sg14
g5
sg15
g5
sg16
g5
sg17
I1085463
sg18
I1535463
sg19
g5
sg20
I450000
sg21
I15144123
sg22
g5
sg23
g5
sg24
I1
sg25
I13847074
sg26
I317543
sg27
I0
sg28
I1934359
sg29
I398896
sg30
I1297049
ssS'CHRISTODOULOU DIOMEDES'
p321
(dp322
g3
g5
sg4
g5
sg6
g5
sg7
I00
sg8
g5
sg9
S'diomedes.christodoulou@enron.com'
p323
sg11
g5
sg12
I31162258467175
sg13
g5
sg14
g5
sg15
g5
sg16
g5
sg17
g5
sg18
I0
sg19
g5
sg20
g5
sg21
I6077885
sg22
g5
sg23
g5
sg24
I1
sg25
I950730
sg26
g5
sg27
I0
sg28
g5
sg29
I0
sg30
I5127155
ssS'ALLEN PHILLIP K'
p324
(dp325
g3
I2902
sg4
I2869717
sg6
I13868
sg7
I00
sg8
I-3081055
sg9
S'phillip.allen@enron.com'
p326
sg11
I304805
sg12
I2991312070681
sg13
I-126027
sg14
I1407
sg15
g5
sg16
I2195
sg17
I152
sg18
I4175152
sg19
g5
sg20
I4175000
sg21
I1729541
sg22
I47
sg23
I65
sg24
I-939120969275
sg25
I126027
sg26
I201955
sg27
I0
sg28
I4484442
sg29
I215823
sg30
I1729541
ssS'SHARP VICTORIA T'
p327
(dp328
g3
I3136
sg4
I187469
sg6
I116337
sg7
I00
sg8
g5
sg9
S'vicki.sharp@enron.com'
p329
sg11
I422158
sg12
I138888287928
sg13
g5
sg14
I2477
sg15
g5
sg16
I136
sg17
I2401
sg18
I602401
sg19
g5
sg20
I600000
sg21
I494136
sg22
I24
sg23
I6
sg24
I422158
sg25
I213063
sg26
I248146
sg27
I0
sg28
I1576511
sg29
I364483
sg30
I281073
ssS'JAEDICKE ROBERT'
p330
(dp331
g3
g5
sg4
g5
sg6
g5
sg7
I00
sg8
I-25000
sg9
g5
sg11
g5
sg12
I186408062500
sg13
I-44093
sg14
g5
sg15
g5
sg16
g5
sg17
g5
sg18
I0
sg19
I108750
sg20
g5
sg21
I431750
sg22
g5
sg23
g5
sg24
I-25000
sg25
I44093
sg26
g5
sg27
I0
sg28
I83750
sg29
I1
sg30
I431750
ssS'WINOKUR JR. HERBERT S'
p332
(dp333
g3
g5
sg4
g5
sg6
I1413
sg7
I00
sg8
I-25000
sg9
g5
sg11
g5
sg12
I1
sg13
g5
sg14
g5
sg15
g5
sg16
g5
sg17
g5
sg18
I0
sg19
I108579
sg20
g5
sg21
g5
sg22
g5
sg23
g5
sg24
I-25000
sg25
g5
sg26
g5
sg27
I0
sg28
I84992
sg29
I1414
sg30
g5
ssS'BROWN MICHAEL'
p334
(dp335
g3
I1486
sg4
g5
sg6
I49288
sg7
I00
sg8
g5
sg9
S'michael.brown@enron.com'
p336
sg11
g5
sg12
I1
sg13
g5
sg14
I761
sg15
g5
sg16
I41
sg17
g5
sg18
I0
sg19
g5
sg20
g5
sg21
g5
sg22
I13
sg23
I1
sg24
I1
sg25
g5
sg26
g5
sg27
I0
sg28
I49288
sg29
I49288
sg30
g5
ssS'BADUM JAMES P'
p337
(dp338
g3
g5
sg4
I178980
sg6
I3486
sg7
I00
sg8
g5
sg9
g5
sg11
g5
sg12
I66469605489
sg13
g5
sg14
g5
sg15
g5
sg16
g5
sg17
g5
sg18
I0
sg19
g5
sg20
g5
sg21
I257817
sg22
g5
sg23
g5
sg24
I1
sg25
g5
sg26
g5
sg27
I0
sg28
I182466
sg29
I3486
sg30
I257817
ssS'HUGHES JAMES A'
p339
(dp340
g3
I719
sg4
g5
sg6
g5
sg7
I00
sg8
g5
sg9
S'james.hughes@enron.com'
p341
sg11
g5
sg12
I844349444604
sg13
g5
sg14
I589
sg15
g5
sg16
I34
sg17
g5
sg18
I0
sg19
g5
sg20
g5
sg21
I1118394
sg22
I35
sg23
I5
sg24
I1
sg25
I363428
sg26
g5
sg27
I0
sg28
g5
sg29
I0
sg30
I754966
ssS'REYNOLDS LAWRENCE'
p342
(dp343
g3
g5
sg4
I51365
sg6
I8409
sg7
I00
sg8
I-200000
sg9
g5
sg11
I156250
sg12
I17565903670752
sg13
I-140264
sg14
g5
sg15
g5
sg16
g5
sg17
I202052
sg18
I302052
sg19
g5
sg20
I100000
sg21
I4221891
sg22
g5
sg23
g5
sg24
I-31250000000
sg25
I201483
sg26
I76399
sg27
I0
sg28
I394475
sg29
I84808
sg30
I4160672
ssS'DIMICHELE RICHARD G'
p344
(dp345
g3
g5
sg4
g5
sg6
I35812
sg7
I00
sg8
g5
sg9
S'richard.dimichele@enron.com'
p346
sg11
I694862
sg12
I68137232287410
sg13
g5
sg14
g5
sg15
g5
sg16
g5
sg17
I374689
sg18
I1374689
sg19
g5
sg20
I1000000
sg21
I8317782
sg22
g5
sg23
g5
sg24
I694862
sg25
I126027
sg26
I262788
sg27
I0
sg28
I2368151
sg29
I298600
sg30
I8191755
ssS'BHATNAGAR SANJAY'
p347
(dp348
g3
I523
sg4
g5
sg6
g5
sg7
I00
sg8
g5
sg9
S'sanjay.bhatnagar@enron.com'
p349
sg11
g5
sg12
I2604490
sg13
I15456290
sg14
I463
sg15
g5
sg16
I29
sg17
I137864
sg18
I137864
sg19
I137864
sg20
g5
sS'total_stock_value'
p350
S'NaN'
p351
sg22
I0
sg23
I1
sg24
I1
sg25
I-2604490
sg26
g5
sg27
I0
sg28
I15456290
sg29
I0
sg30
I2604490
ssS'CARTER REBECCA C'
p352
(dp353
g3
I312
sg4
g5
sg6
g5
sg7
I00
sg8
I-159792
sg9
S'rebecca.carter@enron.com'
p354
sg11
I75000
sg12
I1
sg13
I-307301
sg14
I196
sg15
g5
sg16
I15
sg17
I540
sg18
I300540
sg19
g5
sg20
I300000
sg21
g5
sg22
I29
sg23
I7
sg24
I-11984400000
sg25
I307301
sg26
I261809
sg27
I0
sg28
I477557
sg29
I261809
sg30
g5
ssS'BUCHANAN HAROLD G'
p355
(dp356
g3
I1088
sg4
g5
sg6
I600
sg7
I00
sg8
g5
sg9
S'john.buchanan@enron.com'
p357
sg11
I304805
sg12
I837437355320
sg13
g5
sg14
I23
sg15
g5
sg16
I125
sg17
I1215
sg18
I501215
sg19
g5
sg20
I500000
sg21
I1014505
sg22
I0
sg23
I0
sg24
I304805
sg25
I189041
sg26
I248017
sg27
I0
sg28
I1054637
sg29
I248617
sg30
I825464
ssS'YEAP SOON'
p358
(dp359
g3
g5
sg4
g5
sg6
I55097
sg7
I00
sg8
g5
sg9
g5
sg11
g5
sg12
I37155646564
sg13
g5
sg14
g5
sg15
g5
sg16
g5
sg17
g5
sg18
I0
sg19
g5
sg20
g5
sg21
I192758
sg22
g5
sg23
g5
sg24
I1
sg25
g5
sg26
g5
sg27
I0
sg28
I55097
sg29
I55097
sg30
I192758
ssS'MURRAY JULIA H'
p360
(dp361
g3
I2192
sg4
g5
sg6
I57580
sg7
I00
sg8
g5
sg9
S'julia.murray@enron.com'
p362
sg11
I125000
sg12
I239269986358
sg13
g5
sg14
I395
sg15
g5
sg16
I45
sg17
I330
sg18
I400330
sg19
g5
sg20
I400000
sg21
I597461
sg22
I11
sg23
I2
sg24
I125000
sg25
I196983
sg26
I229284
sg27
I0
sg28
I812194
sg29
I286864
sg30
I400478
ssS'GARLAND C KEVIN'
p363
(dp364
g3
I209
sg4
g5
sg6
I48405
sg7
I00
sg8
g5
sg9
S'kevin.garland@enron.com'
p365
sg11
I375304
sg12
I570173761638
sg13
g5
sg14
I178
sg15
g5
sg16
I44
sg17
I60814
sg18
I910814
sg19
g5
sg20
I850000
sg21
I896153
sg22
I10
sg23
I27
sg24
I375304
sg25
I259907
sg26
I231946
sg27
I0
sg28
I1566469
sg29
I280351
sg30
I636246
ssS'DODSON KEITH'
p366
(dp367
g3
I176
sg4
g5
sg6
I28164
sg7
I00
sg8
g5
sg9
S'keith.dodson@enron.com'
p368
sg11
g5
sg12
I1
sg13
g5
sg14
I114
sg15
g5
sg16
I14
sg17
I774
sg18
I70774
sg19
g5
sg20
I70000
sg21
g5
sg22
I10
sg23
I3
sg24
I1
sg25
g5
sg26
I221003
sg27
I0
sg28
I319941
sg29
I249167
sg30
g5
ssS'YEAGER F SCOTT'
p369
(dp370
g3
g5
sg4
g5
sg6
I53947
sg7
I01
sg8
g5
sg9
S'scott.yeager@enron.com'
p371
sg11
g5
sg12
I98745129850416
sg13
g5
sg14
g5
sg15
g5
sg16
g5
sg17
I147950
sg18
I147950
sg19
g5
sg20
g5
sg21
I11884758
sg22
g5
sg23
g5
sg24
I1
sg25
I3576206
sg26
I158403
sg27
I0
sg28
I360300
sg29
I212350
sg30
I8308552
ssS'HIRKO JOSEPH'
p372
(dp373
g3
g5
sg4
I10259
sg6
I77978
sg7
I01
sg8
g5
sg9
S'joe.hirko@enron.com'
p374
sg11
g5
sg12
I946550694052096
sg13
g5
sg14
g5
sg15
g5
sg16
g5
sg17
I2856
sg18
I2856
sg19
g5
sg20
g5
sg21
I30766064
sg22
g5
sg23
g5
sg24
I1
sg25
g5
sg26
g5
sg27
I0
sg28
I91093
sg29
I77978
sg30
I30766064
ssS'DIETRICH JANET R'
p375
(dp376
g3
I2572
sg4
g5
sg6
I3475
sg7
I00
sg8
g5
sg9
S'janet.dietrich@enron.com'
p377
sg11
I556416
sg12
I2890920286653
sg13
g5
sg14
I1902
sg15
g5
sg16
I63
sg17
I473
sg18
I600473
sg19
g5
sg20
I600000
sg21
I1865087
sg22
I305
sg23
I14
sg24
I556416
sg25
I315068
sg26
I250100
sg27
I0
sg28
I1410464
sg29
I253575
sg30
I1550019
ssS'DERRICK JR. JAMES V'
p378
(dp379
g3
I2181
sg4
g5
sg6
I51124
sg7
I00
sg8
I-1284000
sg9
S'james.derrick@enron.com'
p380
sg11
I484000
sg12
I78002687239569
sg13
I-1787380
sg14
I1401
sg15
g5
sg16
I909
sg17
I7482
sg18
I807482
sg19
g5
sg20
I800000
sg21
I8831913
sg22
I64
sg23
I20
sg24
I-621456000000
sg25
I1787380
sg26
I492375
sg27
I0
sg28
I550981
sg29
I543499
sg30
I8831913
ssS'FREVERT MARK A'
p381
(dp382
g3
I3275
sg4
I6426990
sg6
I86987
sg7
I00
sg8
I-3367011
sg9
S'mark.frevert@enron.com'
p383
sg11
I1617011
sg12
I152560830396830
sg13
g5
sg14
I2979
sg15
I2000000
sg16
I21
sg17
I7427621
sg18
I9427621
sg19
g5
sg20
I2000000
sg21
I14622185
sg22
I242
sg23
I6
sg24
I-5444493824121
sg25
I4188667
sg26
I1060932
sg27
I173974000000
sg28
I17252530
sg29
I1147919
sg30
I10433518
ssS'PAI LOU L'
p384
(dp385
g3
g5
sg4
g5
sg6
I32047
sg7
I00
sg8
g5
sg9
S'lou.pai@enron.com'
p386
sg11
g5
sg12
I365942654114310
sg13
g5
sg14
g5
sg15
g5
sg16
g5
sg17
I1829457
sg18
I2829457
sg19
g5
sg20
I1000000
sg21
I23817930
sg22
g5
sg23
g5
sg24
I1
sg25
I8453763
sg26
I261879
sg27
I0
sg28
I3123383
sg29
I293926
sg30
I15364167
ssS'BAY FRANKLIN R'
p387
(dp388
g3
g5
sg4
I260455
sg6
I129142
sg7
I00
sg8
I-201641
sg9
S'frank.bay@enron.com'
p389
sg11
g5
sg12
I63014
sg13
I-82782
sg14
g5
sg15
g5
sg16
g5
sg17
I69
sg18
I400069
sg19
g5
sg20
I400000
sg21
I63014
sg22
g5
sg23
g5
sg24
I-201641
sg25
I145796
sg26
I239671
sg27
I0
sg28
I827696
sg29
I368813
sg30
g5
ssS'HAYSLETT RODERICK J'
p390
(dp391
g3
I2649
sg4
g5
sg6
g5
sg7
I00
sg8
g5
sg9
S'rod.hayslett@enron.com'
p392
sg11
g5
sg12
I346663
sg13
g5
sg14
I571
sg15
g5
sg16
I1061
sg17
g5
sg18
I0
sg19
g5
sg20
g5
sg21
I346663
sg22
I35
sg23
I38
sg24
I1
sg25
I346663
sg26
g5
sg27
I0
sg28
g5
sg29
I0
sg30
g5
ssS'FUGH JOHN L'
p393
(dp394
g3
g5
sg4
I50591
sg6
g5
sg7
I00
sg8
g5
sg9
g5
sg11
g5
sg12
I31109198884
sg13
g5
sg14
g5
sg15
g5
sg16
g5
sg17
g5
sg18
I0
sg19
g5
sg20
g5
sg21
I176378
sg22
g5
sg23
g5
sg24
I1
sg25
g5
sg26
g5
sg27
I0
sg28
I50591
sg29
I0
sg30
I176378
ssS'FALLON JAMES B'
p395
(dp396
g3
I1755
sg4
g5
sg6
I95924
sg7
I00
sg8
g5
sg9
S'jim.fallon@enron.com'
p397
sg11
I374347
sg12
I2193054486543
sg13
g5
sg14
I1604
sg15
g5
sg16
I75
sg17
I401481
sg18
I2901481
sg19
g5
sg20
I2500000
sg21
I2332399
sg22
I42
sg23
I37
sg24
I374347
sg25
I1392142
sg26
I304588
sg27
I0
sg28
I3676340
sg29
I400512
sg30
I940257
ssS'KOENIG MARK E'
p398
(dp399
g3
I2374
sg4
g5
sg6
I127017
sg7
I01
sg8
g5
sg9
S'mark.koenig@enron.com'
p400
sg11
I300000
sg12
I1289771985535
sg13
g5
sg14
I2271
sg15
g5
sg16
I61
sg17
I150458
sg18
I850458
sg19
g5
sg20
I700000
sg21
I1920055
sg22
I53
sg23
I15
sg24
I300000
sg25
I1248318
sg26
I309946
sg27
I0
sg28
I1587421
sg29
I436963
sg30
I671737
ssS'SAVAGE FRANK'
p401
(dp402
g3
g5
sg4
g5
sg6
g5
sg7
I00
sg8
I-121284
sg9
g5
sg11
g5
sg12
I1
sg13
g5
sg14
g5
sg15
g5
sg16
g5
sg17
g5
sg18
I0
sg19
I125034
sg20
g5
sg21
g5
sg22
g5
sg23
g5
sg24
I-121284
sg25
g5
sg26
g5
sg27
I0
sg28
I3750
sg29
I33
sg30
g5
ssS'IZZO LAWRENCE L'
p403
(dp404
g3
I496
sg4
g5
sg6
I28093
sg7
I00
sg8
g5
sg9
S'larry.izzo@enron.com'
p405
sg11
I312500
sg12
I12601257736560
sg13
g5
sg14
I437
sg15
g5
sg16
I19
sg17
I1553729
sg18
I1553729
sg19
g5
sg20
g5
sg21
I5819980
sg22
I28
sg23
I5
sg24
I312500
sg25
I3654808
sg26
I85274
sg27
I0
sg28
I1979596
sg29
I113367
sg30
I2165172
ssS'TILNEY ELIZABETH A'
p406
(dp407
g3
I460
sg4
g5
sg6
g5
sg7
I00
sg8
I-575000
sg9
S'elizabeth.tilney@enron.com'
p408
sg11
I275000
sg12
I690604832500
sg13
g5
sg14
I379
sg15
g5
sg16
I19
sg17
I152055
sg18
I452055
sg19
g5
sg20
I300000
sg21
I1168042
sg22
I10
sg23
I11
sg24
I-158125000000
sg25
I576792
sg26
I247338
sg27
I0
sg28
I399393
sg29
I247338
sg30
I591250
ssS'MARTIN AMANDA K'
p409
(dp410
g3
I1522
sg4
I85430
sg6
I8211
sg7
I00
sg8
g5
sg9
S'a..martin@enron.com'
p411
sg11
I5145434
sg12
I4286166933636
sg13
g5
sg14
I477
sg15
g5
sg16
I230
sg17
I2818454
sg18
I2818454
sg19
g5
sg20
g5
sg21
I2070306
sg22
I8
sg23
I0
sg24
I5145434
sg25
g5
sg26
I349487
sg27
I0
sg28
I8407016
sg29
I357698
sg30
I2070306
ssS'BUY RICHARD B'
p412
(dp413
g3
I3523
sg4
I649584
sg6
g5
sg7
I00
sg8
I-694862
sg9
S'rick.buy@enron.com'
p414
sg11
I769862
sg12
I8758643094110
sg13
g5
sg14
I2333
sg15
g5
sg16
I1053
sg17
I400572
sg18
I1300572
sg19
g5
sg20
I900000
sg21
I3444470
sg22
I156
sg23
I71
sg24
I-534947849044
sg25
I901657
sg26
I330546
sg27
I0
sg28
I2355702
sg29
I330546
sg30
I2542813
ssS'GRAMM WENDY L'
p415
(dp416
g3
g5
sg4
g5
sg6
g5
sg7
I00
sg8
g5
sg9
g5
sg11
g5
sg12
I1
sg13
g5
sg14
g5
sg15
g5
sg16
g5
sg17
g5
sg18
I0
sg19
I119292
sg20
g5
sg21
g5
sg22
g5
sg23
g5
sg24
I1
sg25
g5
sg26
g5
sg27
I0
sg28
I119292
sg29
I1
sg30
g5
ssS'CAUSEY RICHARD A'
p417
(dp418
g3
I1892
sg4
g5
sg6
I30674
sg7
I01
sg8
I-235000
sg9
S'richard.causey@enron.com'
p419
sg11
I350000
sg12
I2502063
sg13
g5
sg14
I1585
sg15
g5
sg16
I49
sg17
I307895
sg18
I1307895
sg19
g5
sg20
I1000000
sg21
I2502063
sg22
I58
sg23
I12
sg24
I-82250000000
sg25
I2502063
sg26
I415189
sg27
I0
sg28
I1868758
sg29
I445863
sg30
g5
ssS'TAYLOR MITCHELL S'
p420
(dp421
g3
I533
sg4
I227449
sg6
g5
sg7
I00
sg8
g5
sg9
S'mitchell.taylor@enron.com'
p422
sg11
g5
sg12
I11913933950000
sg13
g5
sg14
I300
sg15
g5
sg16
I29
sg17
g5
sg18
I600000
sg19
g5
sg20
I600000
sg21
I3745048
sg22
I0
sg23
I0
sg24
I1
sg25
I563798
sg26
I265214
sg27
I0
sg28
I1092663
sg29
I265214
sg30
I3181250
ssS'DONAHUE JR JEFFREY M'
p423
(dp424
g3
I865
sg4
g5
sg6
I96268
sg7
I00
sg8
I-300000
sg9
S'jeff.donahue@enron.com'
p425
sg11
g5
sg12
I827950328960
sg13
g5
sg14
I772
sg15
g5
sg16
I22
sg17
I891
sg18
I800891
sg19
g5
sg20
I800000
sg21
I1080988
sg22
I188
sg23
I11
sg24
I-300000
sg25
I315068
sg26
I278601
sg27
I0
sg28
I875760
sg29
I374869
sg30
I765920
ssS'GLISAN JR BEN F'
p426
(dp427
g3
I873
sg4
g5
sg6
I125978
sg7
I01
sg8
g5
sg9
S'ben.glisan@enron.com'
p428
sg11
I71023
sg12
I299528445488
sg13
g5
sg14
I874
sg15
g5
sg16
I16
sg17
I200308
sg18
I800308
sg19
g5
sg20
I600000
sg21
I778546
sg22
I52
sg23
I6
sg24
I71023
sg25
I393818
sg26
I274975
sg27
I0
sg28
I1272284
sg29
I400953
sg30
I384728
ss.