(lp0
S'poi'
p1
aS'salary'
p2
aS'total_payments'
p3
aS'exercised_stock_options'
p4
aS'bonus'
p5
aS'total_stock_value'
p6
aS'expenses'
p7
aS'loan_advances'
p8
aS'from_messages'
p9
aS'other'
p10
aS'from_this_person_to_poi'
p11
aS'director_fees'
p12
aS'deferred_income'
p13
aS'long_term_incentive'
p14
aS'from_poi_to_this_person'
p15
aS'stocks_money'
p16
aS'di_lti'
p17
aS'exp_la'
p18
a.